target datalayout = "e-m:e-p270:32:32-p271:32:32-p272:64:64-i64:64-i128:128-f80:128-n8:16:32:64-S128"
target triple = "x86_64-pc-linux-gnu"

%struct.MEMO = type { i64, i64, i64, i64, %union.anon.1 }
%union.anon.1 = type { i64 }

; Function Attrs: inlinehint nounwind sspstrong uwtable
define internal ptr @MEMO_NEW(i64 noundef %0, i64 noundef %1, i64 noundef %2) #3 {
  %4 = alloca i64, align 8
  %5 = alloca i64, align 8
  %6 = alloca i64, align 8
  %7 = alloca ptr, align 8
  store i64 %0, ptr %4, align 8, !tbaa !14
  store i64 %1, ptr %5, align 8, !tbaa !14
  store i64 %2, ptr %6, align 8, !tbaa !14
  call void @llvm.lifetime.start.p0(i64 8, ptr %7) #22
  %8 = call i64 @rb_imemo_new(i32 noundef 5, i64 noundef 0, i64 noundef 40)
  %9 = inttoptr i64 %8 to ptr
  store ptr %9, ptr %7, align 8, !tbaa !34
  %10 = load i64, ptr %4, align 8, !tbaa !14
  %11 = load ptr, ptr %7, align 8, !tbaa !34
  %12 = getelementptr inbounds nuw %struct.MEMO, ptr %11, i32 0, i32 2
  store i64 %10, ptr %12, align 8, !tbaa !14
  %13 = load i64, ptr %5, align 8, !tbaa !14
  %14 = load ptr, ptr %7, align 8, !tbaa !34
  %15 = getelementptr inbounds nuw %struct.MEMO, ptr %14, i32 0, i32 3
  store i64 %13, ptr %15, align 8, !tbaa !14
  %16 = load i64, ptr %6, align 8, !tbaa !14
  %17 = load ptr, ptr %7, align 8, !tbaa !34
  %18 = getelementptr inbounds nuw %struct.MEMO, ptr %17, i32 0, i32 4
  store i64 %16, ptr %18, align 8, !tbaa !31
  %19 = load ptr, ptr %7, align 8, !tbaa !34
  call void @llvm.lifetime.end.p0(i64 8, ptr %7) #22
  ret ptr %19
}

; Function Attrs: inlinehint nounwind sspstrong willreturn memory(none) uwtable
define internal zeroext i1 @RB_NIL_P(i64 noundef %0) #6 {
  %2 = alloca i64, align 8
  store i64 %0, ptr %2, align 8, !tbaa !14
  %3 = load i64, ptr %2, align 8, !tbaa !14
  %4 = icmp eq i64 %3, 4
  ret i1 %4
}

; Function Attrs: inlinehint nounwind sspstrong uwtable
define internal i32 @rb_check_arity(i32 noundef %0, i32 noundef %1, i32 noundef %2) #3 {
  %4 = alloca i32, align 4
  %5 = alloca i32, align 4
  %6 = alloca i32, align 4
  store i32 %0, ptr %4, align 4, !tbaa !7
  store i32 %1, ptr %5, align 4, !tbaa !7
  store i32 %2, ptr %6, align 4, !tbaa !7
  %7 = load i32, ptr %4, align 4, !tbaa !7
  %8 = load i32, ptr %5, align 4, !tbaa !7
  %9 = icmp slt i32 %7, %8
  br i1 %9, label %17, label %10

10:                                               ; preds = %3
  %11 = load i32, ptr %6, align 4, !tbaa !7
  %12 = icmp ne i32 %11, -1
  br i1 %12, label %13, label %21

13:                                               ; preds = %10
  %14 = load i32, ptr %4, align 4, !tbaa !7
  %15 = load i32, ptr %6, align 4, !tbaa !7
  %16 = icmp sgt i32 %14, %15
  br i1 %16, label %17, label %21

17:                                               ; preds = %13, %3
  %18 = load i32, ptr %4, align 4, !tbaa !7
  %19 = load i32, ptr %5, align 4, !tbaa !7
  %20 = load i32, ptr %6, align 4, !tbaa !7
  call void @rb_error_arity(i32 noundef %18, i32 noundef %19, i32 noundef %20) #23
  unreachable

21:                                               ; preds = %13, %10
  %22 = load i32, ptr %4, align 4, !tbaa !7
  ret i32 %22
}

; Function Attrs: nounwind sspstrong uwtable
define internal i64 @enum_min_by(i32 noundef %0, ptr noundef %1, i64 noundef %2) #0 {
  %4 = alloca i64, align 8
  %5 = alloca i32, align 4
  %6 = alloca ptr, align 8
  %7 = alloca i64, align 8
  %8 = alloca ptr, align 8
  %9 = alloca i64, align 8
  %10 = alloca i64, align 8
  %11 = alloca i32, align 4
  store i32 %0, ptr %5, align 4, !tbaa !7
  store ptr %1, ptr %6, align 8, !tbaa !11
  store i64 %2, ptr %7, align 8, !tbaa !14
  call void @llvm.lifetime.start.p0(i64 8, ptr %8) #22
  call void @llvm.lifetime.start.p0(i64 8, ptr %9) #22
  %12 = load i32, ptr %5, align 4, !tbaa !7
  %13 = call i32 @rb_check_arity(i32 noundef %12, i32 noundef 0, i32 noundef 1)
  br label %14

14:                                               ; preds = %3
  %15 = call i32 @rb_block_given_p()
  %16 = icmp ne i32 %15, 0
  br i1 %16, label %25, label %17

17:                                               ; preds = %14
  %18 = load i64, ptr %7, align 8, !tbaa !14
  %19 = call i64 @rb_frame_this_func()
  %20 = call i64 @rb_id2sym(i64 noundef %19)
  store i64 %20, ptr %10, align 8, !tbaa !14
  %21 = load i64, ptr %10, align 8, !tbaa !14
  %22 = load i32, ptr %5, align 4, !tbaa !7
  %23 = load ptr, ptr %6, align 8, !tbaa !11
  %24 = call i64 @rb_enumeratorize_with_size(i64 noundef %18, i64 noundef %21, i32 noundef %22, ptr noundef %23, ptr noundef @enum_size)
  store i64 %24, ptr %4, align 8
  store i32 1, ptr %11, align 4
  br label %48

25:                                               ; preds = %14
  br label %26

26:                                               ; preds = %25
  br label %27

27:                                               ; preds = %26
  %28 = load i32, ptr %5, align 4, !tbaa !7
  %29 = icmp ne i32 %28, 0
  br i1 %29, label %30, label %39

30:                                               ; preds = %27
  %31 = load ptr, ptr %6, align 8, !tbaa !11
  %32 = getelementptr i64, ptr %31, i64 0
  %33 = load i64, ptr %32, align 8, !tbaa !14
  store i64 %33, ptr %9, align 8, !tbaa !14
  %34 = call zeroext i1 @RB_NIL_P(i64 noundef %33) #25
  br i1 %34, label %39, label %35

35:                                               ; preds = %30
  %36 = load i64, ptr %7, align 8, !tbaa !14
  %37 = load i64, ptr %9, align 8, !tbaa !14
  %38 = call i64 @rb_nmin_run(i64 noundef %36, i64 noundef %37, i32 noundef 1, i32 noundef 0, i32 noundef 0)
  store i64 %38, ptr %4, align 8
  store i32 1, ptr %11, align 4
  br label %48

39:                                               ; preds = %30, %27
  %40 = call ptr @MEMO_NEW(i64 noundef 36, i64 noundef 4, i64 noundef 0)
  store ptr %40, ptr %8, align 8, !tbaa !34
  %41 = load i64, ptr %7, align 8, !tbaa !14
  %42 = load ptr, ptr %8, align 8, !tbaa !34
  %43 = ptrtoint ptr %42 to i64
  %44 = call i64 @rb_block_call(i64 noundef %41, i64 noundef 3073, i32 noundef 0, ptr noundef null, ptr noundef @min_by_i, i64 noundef %43)
  %45 = load ptr, ptr %8, align 8, !tbaa !34
  %46 = getelementptr inbounds nuw %struct.MEMO, ptr %45, i32 0, i32 3
  %47 = load i64, ptr %46, align 8, !tbaa !48
  store i64 %47, ptr %4, align 8
  store i32 1, ptr %11, align 4
  br label %48

48:                                               ; preds = %39, %35, %17
  call void @llvm.lifetime.end.p0(i64 8, ptr %9) #22
  call void @llvm.lifetime.end.p0(i64 8, ptr %8) #22
  %49 = load i64, ptr %4, align 8
  ret i64 %49
}